TN:
SF:/home/user/testing/BankAccount.cpp
FN:17,_ZN11TransactionD2Ev
FN:17,_ZN11TransactionC2ERKS_
FN:24,_ZN11BankAccountD2Ev
FN:24,_ZN11BankAccountaSEOS_
FN:24,_ZN11BankAccountC2EOS_
FN:24,_ZN11BankAccountC2ERKS_
FN:36,_ZN11BankAccountC2ENSt7__cxx1112basic_stringIcSt11char_traitsIcESaIcEEES5_11AccountTypedf
FN:46,_ZN11BankAccount7depositB5cxx11Ed
FN:61,_ZN11BankAccount8withdrawB5cxx11Ed
FN:106,_ZN11BankAccount25displayTransactionHistoryB5cxx11Ev
FN:116,_ZN11BankAccount17recordTransactionENSt7__cxx1112basic_stringIcSt11char_traitsIcESaIcEEEd
FN:148,_ZN4Bank13createAccountENSt7__cxx1112basic_stringIcSt11char_traitsIcESaIcEEES5_11AccountTypedd
FN:155,_ZN4Bank11accountTypeENSt7__cxx1112basic_stringIcSt11char_traitsIcESaIcEEE
FN:167,_ZN4Bank7depositENSt7__cxx1112basic_stringIcSt11char_traitsIcESaIcEEEd
FN:179,_ZN4Bank8withdrawENSt7__cxx1112basic_stringIcSt11char_traitsIcESaIcEEEd
FN:191,_ZN4Bank12checkBalanceENSt7__cxx1112basic_stringIcSt11char_traitsIcESaIcEEE
FN:204,_ZN4Bank25displayTransactionHistoryENSt7__cxx1112basic_stringIcSt11char_traitsIcESaIcEEE
FN:216,_ZN4Bank12closeAccountENSt7__cxx1112basic_stringIcSt11char_traitsIcESaIcEEE
FN:246,_Z41__static_initialization_and_destruction_0ii
FN:246,_GLOBAL__sub_I_BankAccount.cpp
FNDA:87021,_ZN11BankAccount17recordTransactionENSt7__cxx1112basic_stringIcSt11char_traitsIcESaIcEEEd
FNDA:47522,_ZN11BankAccount25displayTransactionHistoryB5cxx11Ev
FNDA:0,_ZN11BankAccountaSEOS_
FNDA:95044,_ZN11BankAccountD2Ev
FNDA:1,_Z41__static_initialization_and_destruction_0ii
FNDA:47522,_ZN4Bank25displayTransactionHistoryENSt7__cxx1112basic_stringIcSt11char_traitsIcESaIcEEE
FNDA:47522,_ZN4Bank12closeAccountENSt7__cxx1112basic_stringIcSt11char_traitsIcESaIcEEE
FNDA:0,_ZN11BankAccountC2EOS_
FNDA:1,_GLOBAL__sub_I_BankAccount.cpp
FNDA:55545,_ZN4Bank11accountTypeENSt7__cxx1112basic_stringIcSt11char_traitsIcESaIcEEE
FNDA:47522,_ZN4Bank13createAccountENSt7__cxx1112basic_stringIcSt11char_traitsIcESaIcEEES5_11AccountTypedd
FNDA:118782,_ZN4Bank7depositENSt7__cxx1112basic_stringIcSt11char_traitsIcESaIcEEEd
FNDA:71283,_ZN4Bank8withdrawENSt7__cxx1112basic_stringIcSt11char_traitsIcESaIcEEEd
FNDA:47522,_ZN11BankAccountC2ENSt7__cxx1112basic_stringIcSt11char_traitsIcESaIcEEES5_11AccountTypedf
FNDA:71283,_ZN11BankAccount8withdrawB5cxx11Ed
FNDA:213541,_ZN11TransactionD2Ev
FNDA:47522,_ZN11BankAccountC2ERKS_
FNDA:71260,_ZN11BankAccount7depositB5cxx11Ed
FNDA:229564,_ZN4Bank12checkBalanceENSt7__cxx1112basic_stringIcSt11char_traitsIcESaIcEEE
FNDA:87021,_ZN11TransactionC2ERKS_
FNF:20
FNH:18
DA:17,767143
DA:24,332654
DA:36,47522
DA:37,142566
DA:40,47522
DA:41,47522
DA:42,47522
DA:43,47522
DA:44,47522
DA:46,71260
DA:48,71260
DA:50,0
DA:52,71260
DA:54,23738
DA:56,47522
DA:57,95044
DA:58,142566
DA:61,71283
DA:63,71283
DA:65,0
DA:67,71283
DA:69,23761
DA:71,47522
DA:73,4009
DA:75,43513
DA:77,39499
DA:78,78998
DA:79,118497
DA:83,4014
DA:89,182042
DA:106,47522
DA:108,95044
DA:109,134543
DA:111,696168
DA:113,47522
DA:116,87021
DA:118,87021
DA:119,87021
DA:120,174042
DA:121,87021
DA:122,87021
DA:126,47522
DA:127,47522
DA:138,55545
DA:142,47522
DA:148,47522
DA:150,237610
DA:151,47522
DA:152,95044
DA:155,55545
DA:157,55545
DA:159,111090
DA:167,118782
DA:169,166304
DA:171,237564
DA:173,71260
DA:176,47522
DA:179,71283
DA:181,71283
DA:183,142566
DA:185,71283
DA:188,0
DA:191,229564
DA:193,277086
DA:195,459128
DA:197,728168
DA:201,47522
DA:204,47522
DA:206,47522
DA:208,95044
DA:210,47522
DA:213,0
DA:216,47522
DA:218,47522
DA:220,95044
DA:223,47522
DA:224,47522
DA:227,0
DA:246,3
LF:79
LH:74
end_of_record
TN:
SF:/home/user/testing/test.cpp
FN:6,_ZL41DeepState_Run_BankingSystem_SingleAccountv
FN:6,_ZL42DeepState_Test_BankingSystem_SingleAccountv
FN:6,_ZL46DeepState_Register_BankingSystem_SingleAccountv
FN:147,_GLOBAL__sub_I__ZN9deepstate9PickIndexEPdm
FN:147,_Z41__static_initialization_and_destruction_0ii
FNDA:1,_GLOBAL__sub_I__ZN9deepstate9PickIndexEPdm
FNDA:47522,_ZL41DeepState_Run_BankingSystem_SingleAccountv
FNDA:47522,_ZL42DeepState_Test_BankingSystem_SingleAccountv
FNDA:1,_ZL46DeepState_Register_BankingSystem_SingleAccountv
FNDA:1,_Z41__static_initialization_and_destruction_0ii
FNF:5
FNH:5
DA:6,95046
DA:13,47522
DA:16,47522
DA:17,47522
DA:18,47522
DA:21,47522
DA:22,47522
DA:25,237610
DA:28,427698
DA:31,190088
DA:35,47522
DA:40,95044
DA:41,47522
DA:44,213642
DA:48,23738
DA:49,23738
DA:51,23738
DA:53,71214
DA:54,94952
DA:57,213642
DA:63,23784
DA:65,95136
DA:67,214056
DA:72,190088
DA:75,47522
DA:79,142566
DA:80,47522
DA:83,213849
DA:86,23761
DA:87,23761
DA:90,23761
DA:94,23761
DA:95,47522
DA:97,71283
DA:98,23761
DA:100,4014
DA:101,2007
DA:103,95044
DA:106,177408
DA:108,23761
DA:110,4084
DA:111,2042
DA:117,23761
DA:121,23761
DA:122,47522
DA:125,23761
DA:127,4004
DA:128,2002
DA:130,95044
DA:133,178083
DA:135,23761
DA:137,3944
DA:138,1972
DA:143,380176
DA:146,190088
DA:147,47525
LF:56
LH:56
end_of_record
