TN:
SF:/home/user/testing/BankAccount.cpp
FN:17,_ZN11TransactionC2ERKS_
FN:17,_ZN11TransactionD2Ev
FN:24,_ZN11BankAccountaSEOS_
FN:24,_ZN11BankAccountC2EOS_
FN:24,_ZN11BankAccountC2ERKS_
FN:24,_ZN11BankAccountD2Ev
FN:36,_ZN11BankAccountC2ENSt7__cxx1112basic_stringIcSt11char_traitsIcESaIcEEES5_11AccountTypedf
FN:46,_ZN11BankAccount7depositB5cxx11Ed
FN:61,_ZN11BankAccount8withdrawB5cxx11Ed
FN:106,_ZN11BankAccount25displayTransactionHistoryB5cxx11Ev
FN:116,_ZN11BankAccount17recordTransactionENSt7__cxx1112basic_stringIcSt11char_traitsIcESaIcEEEd
FN:148,_ZN4Bank13createAccountENSt7__cxx1112basic_stringIcSt11char_traitsIcESaIcEEES5_11AccountTypedd
FN:155,_ZN4Bank11accountTypeENSt7__cxx1112basic_stringIcSt11char_traitsIcESaIcEEE
FN:167,_ZN4Bank7depositENSt7__cxx1112basic_stringIcSt11char_traitsIcESaIcEEEd
FN:179,_ZN4Bank8withdrawENSt7__cxx1112basic_stringIcSt11char_traitsIcESaIcEEEd
FN:191,_ZN4Bank12checkBalanceENSt7__cxx1112basic_stringIcSt11char_traitsIcESaIcEEE
FN:204,_ZN4Bank25displayTransactionHistoryENSt7__cxx1112basic_stringIcSt11char_traitsIcESaIcEEE
FN:216,_ZN4Bank12closeAccountENSt7__cxx1112basic_stringIcSt11char_traitsIcESaIcEEE
FN:246,_GLOBAL__sub_I_BankAccount.cpp
FN:246,_Z41__static_initialization_and_destruction_0ii
FNDA:74860,_ZN11BankAccount8withdrawB5cxx11Ed
FNDA:0,_ZN11BankAccountC2EOS_
FNDA:1,_GLOBAL__sub_I_BankAccount.cpp
FNDA:0,_ZN11BankAccountaSEOS_
FNDA:49805,_ZN4Bank12closeAccountENSt7__cxx1112basic_stringIcSt11char_traitsIcESaIcEEE
FNDA:49805,_ZN4Bank25displayTransactionHistoryENSt7__cxx1112basic_stringIcSt11char_traitsIcESaIcEEE
FNDA:91323,_ZN11BankAccount17recordTransactionENSt7__cxx1112basic_stringIcSt11char_traitsIcESaIcEEEd
FNDA:124345,_ZN4Bank7depositENSt7__cxx1112basic_stringIcSt11char_traitsIcESaIcEEEd
FNDA:1,_Z41__static_initialization_and_destruction_0ii
FNDA:91323,_ZN11TransactionC2ERKS_
FNDA:74540,_ZN11BankAccount7depositB5cxx11Ed
FNDA:49805,_ZN11BankAccountC2ERKS_
FNDA:58092,_ZN4Bank11accountTypeENSt7__cxx1112basic_stringIcSt11char_traitsIcESaIcEEE
FNDA:224164,_ZN11TransactionD2Ev
FNDA:99610,_ZN11BankAccountD2Ev
FNDA:49805,_ZN11BankAccount25displayTransactionHistoryB5cxx11Ev
FNDA:49805,_ZN11BankAccountC2ENSt7__cxx1112basic_stringIcSt11char_traitsIcESaIcEEES5_11AccountTypedf
FNDA:49805,_ZN4Bank13createAccountENSt7__cxx1112basic_stringIcSt11char_traitsIcESaIcEEES5_11AccountTypedd
FNDA:74860,_ZN4Bank8withdrawENSt7__cxx1112basic_stringIcSt11char_traitsIcESaIcEEEd
FNDA:240723,_ZN4Bank12checkBalanceENSt7__cxx1112basic_stringIcSt11char_traitsIcESaIcEEE
FNF:20
FNH:18
DA:17,805333
DA:24,348635
DA:36,49805
DA:37,149415
DA:40,49805
DA:41,49805
DA:42,49805
DA:43,49805
DA:44,49805
DA:46,74540
DA:48,74540
DA:50,0
DA:52,74540
DA:54,24735
DA:56,49805
DA:57,99610
DA:58,149415
DA:61,74860
DA:63,74860
DA:65,0
DA:67,74860
DA:69,25055
DA:71,49805
DA:73,4103
DA:75,45702
DA:77,41518
DA:78,83036
DA:79,124554
DA:83,4184
DA:89,190918
DA:106,49805
DA:108,99610
DA:109,141128
DA:111,730584
DA:113,49805
DA:116,91323
DA:118,91323
DA:119,91323
DA:120,182646
DA:121,91323
DA:122,91323
DA:126,49805
DA:127,49805
DA:138,58092
DA:142,49805
DA:148,49805
DA:150,249025
DA:151,49805
DA:152,99610
DA:155,58092
DA:157,58092
DA:159,116184
DA:167,124345
DA:169,174150
DA:171,248690
DA:173,74540
DA:176,49805
DA:179,74860
DA:181,74860
DA:183,149720
DA:185,74860
DA:188,0
DA:191,240723
DA:193,290528
DA:195,481446
DA:197,763672
DA:201,49805
DA:204,49805
DA:206,49805
DA:208,99610
DA:210,49805
DA:213,0
DA:216,49805
DA:218,49805
DA:220,99610
DA:223,49805
DA:224,49805
DA:227,0
DA:246,3
LF:79
LH:74
end_of_record
TN:
SF:/home/user/testing/test.cpp
FN:6,_ZL41DeepState_Run_BankingSystem_SingleAccountv
FN:6,_ZL42DeepState_Test_BankingSystem_SingleAccountv
FN:6,_ZL46DeepState_Register_BankingSystem_SingleAccountv
FN:147,_Z41__static_initialization_and_destruction_0ii
FN:147,_GLOBAL__sub_I__ZN9deepstate9PickIndexEPdm
FNDA:1,_ZL46DeepState_Register_BankingSystem_SingleAccountv
FNDA:49805,_ZL42DeepState_Test_BankingSystem_SingleAccountv
FNDA:1,_Z41__static_initialization_and_destruction_0ii
FNDA:49805,_ZL41DeepState_Run_BankingSystem_SingleAccountv
FNDA:1,_GLOBAL__sub_I__ZN9deepstate9PickIndexEPdm
FNF:5
FNH:5
DA:6,99612
DA:13,49805
DA:16,49805
DA:17,49805
DA:18,49805
DA:21,49805
DA:22,49805
DA:25,249025
DA:28,448245
DA:31,199220
DA:35,49805
DA:40,99610
DA:41,49805
DA:44,222615
DA:48,24735
DA:49,24735
DA:51,24735
DA:53,74205
DA:54,98940
DA:57,222615
DA:63,25070
DA:65,100280
DA:67,225630
DA:72,199220
DA:75,49805
DA:79,149415
DA:80,49805
DA:83,225495
DA:86,25055
DA:87,25055
DA:90,25055
DA:94,25055
DA:95,50110
DA:97,75165
DA:98,25055
DA:100,4066
DA:101,2033
DA:103,100220
DA:106,188424
DA:108,25055
DA:110,4172
DA:111,2086
DA:117,24750
DA:121,24750
DA:122,49500
DA:125,24750
DA:127,4140
DA:128,2070
DA:130,99000
DA:133,185238
DA:135,24750
DA:137,4196
DA:138,2098
DA:143,398440
DA:146,199220
DA:147,49808
LF:56
LH:56
end_of_record
